target datalayout = "e-m:e-p270:32:32-p271:32:32-p272:64:64-i64:64-i128:128-f80:128-n8:16:32:64-S128"
target triple = "x86_64-pc-linux-gnu"

%struct.H5LT_file_image_ud_t = type { ptr, i64, ptr, i64, i32, ptr, i64, i32, i32, i32 }

; Function Attrs: nounwind uwtable
define internal ptr @image_realloc(ptr noundef %0, i64 noundef %1, i32 noundef %2, ptr noundef %3) #0 {
  %5 = alloca ptr, align 8
  %6 = alloca ptr, align 8
  %7 = alloca i64, align 8
  %8 = alloca i32, align 4
  %9 = alloca ptr, align 8
  %10 = alloca ptr, align 8
  %11 = alloca ptr, align 8
  %12 = alloca ptr, align 8
  %13 = alloca i32, align 4
  store ptr %0, ptr %6, align 8, !tbaa !14
  store i64 %1, ptr %7, align 8, !tbaa !3
  store i32 %2, ptr %8, align 4, !tbaa !10
  store ptr %3, ptr %9, align 8, !tbaa !14
  call void @llvm.lifetime.start.p0(i64 8, ptr %10) #11
  %14 = load ptr, ptr %9, align 8, !tbaa !14
  store ptr %14, ptr %10, align 8, !tbaa !14
  call void @llvm.lifetime.start.p0(i64 8, ptr %11) #11
  store ptr null, ptr %11, align 8, !tbaa !14
  %15 = load ptr, ptr %10, align 8, !tbaa !14
  %16 = getelementptr inbounds nuw %struct.H5LT_file_image_ud_t, ptr %15, i32 0, i32 8
  %17 = load i32, ptr %16, align 4, !tbaa !39
  %18 = and i32 %17, 2
  %19 = icmp ne i32 %18, 0
  br i1 %19, label %21, label %20

20:                                               ; preds = %4
  br label %92

21:                                               ; preds = %4
  %22 = load ptr, ptr %10, align 8, !tbaa !14
  %23 = getelementptr inbounds nuw %struct.H5LT_file_image_ud_t, ptr %22, i32 0, i32 8
  %24 = load i32, ptr %23, align 4, !tbaa !39
  %25 = and i32 %24, 4
  %26 = icmp ne i32 %25, 0
  br i1 %26, label %27, label %28

27:                                               ; preds = %21
  br label %92

28:                                               ; preds = %21
  %29 = load ptr, ptr %10, align 8, !tbaa !14
  %30 = getelementptr inbounds nuw %struct.H5LT_file_image_ud_t, ptr %29, i32 0, i32 8
  %31 = load i32, ptr %30, align 4, !tbaa !39
  %32 = and i32 %31, 1
  %33 = icmp ne i32 %32, 0
  br i1 %33, label %35, label %34

34:                                               ; preds = %28
  br label %92

35:                                               ; preds = %28
  %36 = load i32, ptr %8, align 4, !tbaa !10
  %37 = icmp eq i32 %36, 6
  br i1 %37, label %38, label %89

38:                                               ; preds = %35
  call void @llvm.lifetime.start.p0(i64 8, ptr %12) #11
  %39 = load ptr, ptr %10, align 8, !tbaa !14
  %40 = getelementptr inbounds nuw %struct.H5LT_file_image_ud_t, ptr %39, i32 0, i32 5
  %41 = load ptr, ptr %40, align 8, !tbaa !36
  %42 = load ptr, ptr %6, align 8, !tbaa !14
  %43 = icmp ne ptr %41, %42
  br i1 %43, label %44, label %45

44:                                               ; preds = %38
  store i32 2, ptr %13, align 4
  br label %86

45:                                               ; preds = %38
  %46 = load ptr, ptr %10, align 8, !tbaa !14
  %47 = getelementptr inbounds nuw %struct.H5LT_file_image_ud_t, ptr %46, i32 0, i32 7
  %48 = load i32, ptr %47, align 8, !tbaa !38
  %49 = icmp ne i32 %48, 1
  br i1 %49, label %50, label %51

50:                                               ; preds = %45
  store i32 2, ptr %13, align 4
  br label %86

51:                                               ; preds = %45
  %52 = load ptr, ptr %6, align 8, !tbaa !14
  %53 = load i64, ptr %7, align 8, !tbaa !3
  %54 = call ptr @realloc(ptr noundef %52, i64 noundef %53) #14
  store ptr %54, ptr %12, align 8, !tbaa !14
  %55 = load ptr, ptr %12, align 8, !tbaa !14
  %56 = icmp ne ptr %55, null
  br i1 %56, label %57, label %71

57:                                               ; preds = %51
  %58 = load ptr, ptr %12, align 8, !tbaa !14
  %59 = load ptr, ptr %10, align 8, !tbaa !14
  %60 = getelementptr inbounds nuw %struct.H5LT_file_image_ud_t, ptr %59, i32 0, i32 5
  store ptr %58, ptr %60, align 8, !tbaa !36
  %61 = load ptr, ptr %10, align 8, !tbaa !14
  %62 = getelementptr inbounds nuw %struct.H5LT_file_image_ud_t, ptr %61, i32 0, i32 5
  %63 = load ptr, ptr %62, align 8, !tbaa !36
  %64 = load ptr, ptr %10, align 8, !tbaa !14
  %65 = getelementptr inbounds nuw %struct.H5LT_file_image_ud_t, ptr %64, i32 0, i32 0
  store ptr %63, ptr %65, align 8, !tbaa !30
  %66 = load ptr, ptr %10, align 8, !tbaa !14
  %67 = getelementptr inbounds nuw %struct.H5LT_file_image_ud_t, ptr %66, i32 0, i32 5
  %68 = load ptr, ptr %67, align 8, !tbaa !36
  %69 = load ptr, ptr %10, align 8, !tbaa !14
  %70 = getelementptr inbounds nuw %struct.H5LT_file_image_ud_t, ptr %69, i32 0, i32 2
  store ptr %68, ptr %70, align 8, !tbaa !33
  br label %79

71:                                               ; preds = %51
  %72 = load ptr, ptr %6, align 8, !tbaa !14
  call void @free(ptr noundef %72) #11
  %73 = load ptr, ptr %10, align 8, !tbaa !14
  %74 = getelementptr inbounds nuw %struct.H5LT_file_image_ud_t, ptr %73, i32 0, i32 5
  store ptr null, ptr %74, align 8, !tbaa !36
  %75 = load ptr, ptr %10, align 8, !tbaa !14
  %76 = getelementptr inbounds nuw %struct.H5LT_file_image_ud_t, ptr %75, i32 0, i32 0
  store ptr null, ptr %76, align 8, !tbaa !30
  %77 = load ptr, ptr %10, align 8, !tbaa !14
  %78 = getelementptr inbounds nuw %struct.H5LT_file_image_ud_t, ptr %77, i32 0, i32 2
  store ptr null, ptr %78, align 8, !tbaa !33
  store i32 2, ptr %13, align 4
  br label %86

79:                                               ; preds = %57
  %80 = load i64, ptr %7, align 8, !tbaa !3
  %81 = load ptr, ptr %10, align 8, !tbaa !14
  %82 = getelementptr inbounds nuw %struct.H5LT_file_image_ud_t, ptr %81, i32 0, i32 6
  store i64 %80, ptr %82, align 8, !tbaa !37
  %83 = load ptr, ptr %10, align 8, !tbaa !14
  %84 = getelementptr inbounds nuw %struct.H5LT_file_image_ud_t, ptr %83, i32 0, i32 5
  %85 = load ptr, ptr %84, align 8, !tbaa !36
  store ptr %85, ptr %11, align 8, !tbaa !14
  store i32 0, ptr %13, align 4
  br label %86

86:                                               ; preds = %71, %50, %44, %79
  call void @llvm.lifetime.end.p0(i64 8, ptr %12) #11
  %87 = load i32, ptr %13, align 4
  switch i32 %87, label %93 [
    i32 0, label %88
    i32 2, label %92
  ]

88:                                               ; preds = %86
  br label %90

89:                                               ; preds = %35
  br label %92

90:                                               ; preds = %88
  %91 = load ptr, ptr %11, align 8, !tbaa !14
  store ptr %91, ptr %5, align 8
  store i32 1, ptr %13, align 4
  br label %93

92:                                               ; preds = %86, %89, %34, %27, %20
  store ptr null, ptr %5, align 8
  store i32 1, ptr %13, align 4
  br label %93

93:                                               ; preds = %92, %90, %86
  call void @llvm.lifetime.end.p0(i64 8, ptr %11) #11
  call void @llvm.lifetime.end.p0(i64 8, ptr %10) #11
  %94 = load ptr, ptr %5, align 8
  ret ptr %94
}