; Function Attrs: mustprogress nounwind willreturn memory(argmem: readwrite, inaccessiblemem: readwrite) uwtable
define internal noundef ptr @image_realloc(ptr noundef captures(address) %0, i64 noundef %1, i32 noundef %2, ptr noundef captures(none) %3) #6 {
  %5 = getelementptr inbounds nuw i8, ptr %3, i64 60
  %6 = load i32, ptr %5, align 4, !tbaa !20
  %7 = and i32 %6, 6
  %or.cond35 = icmp eq i32 %7, 2
  br i1 %or.cond35, label %8, label %.thread

8:                                                ; preds = %4
  %9 = and i32 %6, 1
  %10 = icmp ne i32 %9, 0
  %11 = icmp eq i32 %2, 6
  %or.cond = and i1 %11, %10
  br i1 %or.cond, label %12, label %.thread

12:                                               ; preds = %8
  %13 = getelementptr inbounds nuw i8, ptr %3, i64 40
  %14 = load ptr, ptr %13, align 8, !tbaa !27
  %.not32 = icmp eq ptr %14, %0
  br i1 %.not32, label %15, label %.thread

15:                                               ; preds = %12
  %16 = getelementptr inbounds nuw i8, ptr %3, i64 56
  %17 = load i32, ptr %16, align 8, !tbaa !29
  %.not33 = icmp eq i32 %17, 1
  br i1 %.not33, label %18, label %.thread

18:                                               ; preds = %15
  %19 = tail call ptr @realloc(ptr noundef %0, i64 noundef %1) #23
  %.not34 = icmp eq ptr %19, null
  br i1 %.not34, label %20, label %22

20:                                               ; preds = %18
  tail call void @free(ptr noundef %0) #20
  store ptr null, ptr %13, align 8, !tbaa !27
  store ptr null, ptr %3, align 8, !tbaa !17
  %21 = getelementptr inbounds nuw i8, ptr %3, i64 16
  store ptr null, ptr %21, align 8, !tbaa !24
  br label %.thread

22:                                               ; preds = %18
  store ptr %19, ptr %13, align 8, !tbaa !27
  store ptr %19, ptr %3, align 8, !tbaa !17
  %23 = getelementptr inbounds nuw i8, ptr %3, i64 16
  store ptr %19, ptr %23, align 8, !tbaa !24
  %24 = getelementptr inbounds nuw i8, ptr %3, i64 48
  store i64 %1, ptr %24, align 8, !tbaa !28
  br label %.thread

.thread:                                          ; preds = %15, %12, %20, %4, %8, %22
  %.027 = phi ptr [ %19, %22 ], [ null, %8 ], [ null, %4 ], [ null, %20 ], [ null, %12 ], [ null, %15 ]
  ret ptr %.027
}